; Function Attrs: nounwind uwtable
define hidden void @uv__stream_destroy(ptr noundef %0) local_unnamed_addr #0 {
  %2 = getelementptr inbounds nuw i8, ptr %0, i64 120
  %3 = load ptr, ptr %2, align 8
  %.not = icmp eq ptr %3, null
  br i1 %.not, label %13, label %4

4:                                                ; preds = %1
  %5 = getelementptr inbounds nuw i8, ptr %0, i64 8
  %6 = load ptr, ptr %5, align 8
  %7 = getelementptr inbounds nuw i8, ptr %6, i64 32
  %8 = load i32, ptr %7, align 8
  %9 = add i32 %8, -1
  store i32 %9, ptr %7, align 8
  %10 = load ptr, ptr %2, align 8
  %11 = getelementptr inbounds nuw i8, ptr %10, i64 64
  %12 = load ptr, ptr %11, align 8
  tail call void %12(ptr noundef %10, i32 noundef -125) #12
  store ptr null, ptr %2, align 8
  br label %13

13:                                               ; preds = %4, %1
  %14 = getelementptr inbounds nuw i8, ptr %0, i64 192
  %15 = load ptr, ptr %14, align 8
  %.not7.i = icmp eq ptr %14, %15
  br i1 %.not7.i, label %uv__stream_flush_write_queue.exit, label %.lr.ph.i

.lr.ph.i:                                         ; preds = %13
  %16 = getelementptr inbounds nuw i8, ptr %0, i64 208
  %17 = getelementptr inbounds nuw i8, ptr %0, i64 216
  br label %18

18:                                               ; preds = %18, %.lr.ph.i
  %19 = phi ptr [ %15, %.lr.ph.i ], [ %27, %18 ]
  %20 = load ptr, ptr %19, align 8
  %21 = getelementptr inbounds nuw i8, ptr %19, i64 8
  %22 = load ptr, ptr %21, align 8
  store ptr %20, ptr %22, align 8
  %23 = load ptr, ptr %21, align 8
  %24 = getelementptr inbounds nuw i8, ptr %20, i64 8
  store ptr %23, ptr %24, align 8
  %25 = getelementptr inbounds nuw i8, ptr %19, i64 36
  store i32 -125, ptr %25, align 4
  store ptr %16, ptr %19, align 8
  %26 = load ptr, ptr %17, align 8
  store ptr %26, ptr %21, align 8
  store ptr %19, ptr %26, align 8
  store ptr %19, ptr %17, align 8
  %27 = load ptr, ptr %14, align 8
  %.not.i = icmp eq ptr %14, %27
  br i1 %.not.i, label %uv__stream_flush_write_queue.exit, label %18

uv__stream_flush_write_queue.exit:                ; preds = %18, %13
  tail call fastcc void @uv__write_callbacks(ptr noundef nonnull %0)
  tail call fastcc void @uv__drain(ptr noundef nonnull %0)
  ret void
}